; Function Attrs: nounwind uwtable
define void @Wlc_NtkAbsAddToNodeFrames(ptr noundef captures(none) %0, ptr noundef readonly captures(none) %1) local_unnamed_addr #0 {
  %3 = getelementptr i8, ptr %1, i64 4
  %.val710 = load i32, ptr %3, align 4, !tbaa !26
  %4 = icmp sgt i32 %.val710, 0
  br i1 %4, label %.lr.ph, label %..critedge_crit_edge

..critedge_crit_edge:                             ; preds = %2
  %.phi.trans.insert = getelementptr i8, ptr %0, i64 8
  %.val9.pre = load ptr, ptr %.phi.trans.insert, align 8, !tbaa !3
  br label %.critedge

.lr.ph:                                           ; preds = %2
  %5 = getelementptr i8, ptr %1, i64 8
  %6 = getelementptr inbounds nuw i8, ptr %0, i64 4
  %7 = getelementptr inbounds nuw i8, ptr %0, i64 8
  br label %8

8:                                                ; preds = %.lr.ph, %Vec_IntPushUnique.exit
  %.val713 = phi i32 [ %.val710, %.lr.ph ], [ %.val7, %Vec_IntPushUnique.exit ]
  %indvars.iv = phi i64 [ 0, %.lr.ph ], [ %indvars.iv.next, %Vec_IntPushUnique.exit ]
  %.val = load ptr, ptr %5, align 8, !tbaa !3
  %9 = getelementptr inbounds nuw i32, ptr %.val, i64 %indvars.iv
  %10 = load i32, ptr %9, align 4, !tbaa !10
  %11 = load i32, ptr %6, align 4, !tbaa !26
  %12 = icmp sgt i32 %11, 0
  br i1 %12, label %.lr.ph.i, label %._crit_edge.i

.lr.ph.i:                                         ; preds = %8
  %13 = load ptr, ptr %7, align 8, !tbaa !3
  %wide.trip.count.i = zext nneg i32 %11 to i64
  br label %15

14:                                               ; preds = %15
  %indvars.iv.next.i = add nuw nsw i64 %indvars.iv.i, 1
  %exitcond.not.i = icmp eq i64 %indvars.iv.next.i, %wide.trip.count.i
  br i1 %exitcond.not.i, label %._crit_edge.i, label %15, !llvm.loop !46

15:                                               ; preds = %14, %.lr.ph.i
  %indvars.iv.i = phi i64 [ 0, %.lr.ph.i ], [ %indvars.iv.next.i, %14 ]
  %16 = getelementptr inbounds nuw i32, ptr %13, i64 %indvars.iv.i
  %17 = load i32, ptr %16, align 4, !tbaa !10
  %18 = icmp eq i32 %17, %10
  br i1 %18, label %Vec_IntPushUnique.exit, label %14

._crit_edge.i:                                    ; preds = %14, %8
  %19 = load i32, ptr %0, align 8, !tbaa !25
  %20 = icmp eq i32 %11, %19
  br i1 %20, label %21, label %.Vec_IntGrow.exit10_crit_edge.i.i

.Vec_IntGrow.exit10_crit_edge.i.i:                ; preds = %._crit_edge.i
  %.pre.i.i = load ptr, ptr %7, align 8, !tbaa !3
  br label %Vec_IntPush.exit.i

21:                                               ; preds = %._crit_edge.i
  %22 = icmp slt i32 %11, 16
  br i1 %22, label %23, label %30

23:                                               ; preds = %21
  %24 = load ptr, ptr %7, align 8, !tbaa !3
  %.not9.i.i.i = icmp eq ptr %24, null
  br i1 %.not9.i.i.i, label %27, label %25

25:                                               ; preds = %23
  %26 = tail call dereferenceable_or_null(64) ptr @realloc(ptr noundef nonnull %24, i64 noundef 64) #27
  br label %Vec_IntGrow.exit.i.i

27:                                               ; preds = %23
  %28 = tail call noalias dereferenceable_or_null(64) ptr @malloc(i64 noundef 64) #25
  br label %Vec_IntGrow.exit.i.i

Vec_IntGrow.exit.i.i:                             ; preds = %27, %25
  %29 = phi ptr [ %26, %25 ], [ %28, %27 ]
  store ptr %29, ptr %7, align 8, !tbaa !3
  store i32 16, ptr %0, align 8, !tbaa !25
  br label %Vec_IntPush.exit.i

30:                                               ; preds = %21
  %31 = shl nuw nsw i32 %11, 1
  %32 = load ptr, ptr %7, align 8, !tbaa !3
  %.not9.i9.i.i = icmp eq ptr %32, null
  %33 = zext nneg i32 %31 to i64
  %34 = shl nuw nsw i64 %33, 2
  br i1 %.not9.i9.i.i, label %37, label %35

35:                                               ; preds = %30
  %36 = tail call ptr @realloc(ptr noundef nonnull %32, i64 noundef %34) #27
  br label %39

37:                                               ; preds = %30
  %38 = tail call noalias ptr @malloc(i64 noundef %34) #25
  br label %39

39:                                               ; preds = %37, %35
  %40 = phi ptr [ %36, %35 ], [ %38, %37 ]
  store ptr %40, ptr %7, align 8, !tbaa !3
  store i32 %31, ptr %0, align 8, !tbaa !25
  br label %Vec_IntPush.exit.i

Vec_IntPush.exit.i:                               ; preds = %39, %Vec_IntGrow.exit.i.i, %.Vec_IntGrow.exit10_crit_edge.i.i
  %41 = phi ptr [ %.pre.i.i, %.Vec_IntGrow.exit10_crit_edge.i.i ], [ %40, %39 ], [ %29, %Vec_IntGrow.exit.i.i ]
  %42 = load i32, ptr %6, align 4, !tbaa !26
  %43 = add nsw i32 %42, 1
  store i32 %43, ptr %6, align 4, !tbaa !26
  %44 = sext i32 %42 to i64
  %45 = getelementptr inbounds i32, ptr %41, i64 %44
  store i32 %10, ptr %45, align 4, !tbaa !10
  %.val7.pre = load i32, ptr %3, align 4, !tbaa !26
  br label %Vec_IntPushUnique.exit

Vec_IntPushUnique.exit:                           ; preds = %15, %Vec_IntPush.exit.i
  %.val916 = phi ptr [ %41, %Vec_IntPush.exit.i ], [ %13, %15 ]
  %.val7 = phi i32 [ %.val7.pre, %Vec_IntPush.exit.i ], [ %.val713, %15 ]
  %indvars.iv.next = add nuw nsw i64 %indvars.iv, 1
  %46 = sext i32 %.val7 to i64
  %47 = icmp slt i64 %indvars.iv.next, %46
  br i1 %47, label %8, label %.critedge, !llvm.loop !55

.critedge:                                        ; preds = %Vec_IntPushUnique.exit, %..critedge_crit_edge
  %.val9 = phi ptr [ %.val9.pre, %..critedge_crit_edge ], [ %.val916, %Vec_IntPushUnique.exit ]
  %48 = getelementptr i8, ptr %0, i64 4
  %.val8 = load i32, ptr %48, align 4, !tbaa !26
  %49 = sext i32 %.val8 to i64
  tail call void @qsort(ptr noundef %.val9, i64 noundef %49, i64 noundef 4, ptr noundef nonnull @Vec_IntSortCompare1) #26
  ret void
}